target datalayout = "e-m:e-p270:32:32-p271:32:32-p272:64:64-i64:64-i128:128-f80:128-n8:16:32:64-S128"
target triple = "x86_64-pc-linux-gnu"

@config_file = internal global ptr null, align 8
@alg = internal global ptr @.str.26, align 8
@fetch_property = internal global ptr null, align 8
@expected_fetch_result = internal global i32 1, align 4
@use_default_ctx = internal global i32 0, align 4
@.str.25 = private unnamed_addr constant [30 x i8] c"test_legacy_provider_unloaded\00", align 1
@.str.26 = private unnamed_addr constant [7 x i8] c"digest\00", align 1
@.str.27 = private unnamed_addr constant [27 x i8] c"test_implicit_EVP_MD_fetch\00", align 1
@.str.28 = private unnamed_addr constant [35 x i8] c"test_explicit_EVP_MD_fetch_by_name\00", align 1
@.str.29 = private unnamed_addr constant [41 x i8] c"test_explicit_EVP_MD_fetch_by_X509_ALGOR\00", align 1
@.str.30 = private unnamed_addr constant [31 x i8] c"test_implicit_EVP_CIPHER_fetch\00", align 1
@.str.31 = private unnamed_addr constant [39 x i8] c"test_explicit_EVP_CIPHER_fetch_by_name\00", align 1
@.str.32 = private unnamed_addr constant [45 x i8] c"test_explicit_EVP_CIPHER_fetch_by_X509_ALGOR\00", align 1

; Function Attrs: nounwind uwtable
define dso_local i32 @setup_tests() #0 {
  %1 = alloca i32, align 4
  %2 = alloca i32, align 4
  %3 = alloca i32, align 4
  call void @llvm.lifetime.start.p0(i64 4, ptr %2) #6
  br label %4

4:                                                ; preds = %20, %0
  %5 = call i32 @opt_next()
  store i32 %5, ptr %2, align 4, !tbaa !4
  %6 = icmp ne i32 %5, 0
  br i1 %6, label %7, label %21

7:                                                ; preds = %4
  %8 = load i32, ptr %2, align 4, !tbaa !4
  switch i32 %8, label %18 [
    i32 5, label %9
    i32 1, label %11
    i32 2, label %13
    i32 3, label %15
    i32 4, label %16
    i32 500, label %17
    i32 501, label %17
    i32 502, label %17
    i32 503, label %17
    i32 504, label %17
    i32 505, label %17
    i32 -1, label %19
  ]

9:                                                ; preds = %7
  %10 = call ptr @opt_arg()
  store ptr %10, ptr @config_file, align 8, !tbaa !8
  br label %20

11:                                               ; preds = %7
  %12 = call ptr @opt_arg()
  store ptr %12, ptr @alg, align 8, !tbaa !8
  br label %20

13:                                               ; preds = %7
  %14 = call ptr @opt_arg()
  store ptr %14, ptr @fetch_property, align 8, !tbaa !8
  br label %20

15:                                               ; preds = %7
  store i32 0, ptr @expected_fetch_result, align 4, !tbaa !4
  br label %20

16:                                               ; preds = %7
  store i32 1, ptr @use_default_ctx, align 4, !tbaa !4
  br label %20

17:                                               ; preds = %7, %7, %7, %7, %7, %7
  br label %20

18:                                               ; preds = %7
  br label %19

19:                                               ; preds = %7, %18
  store i32 0, ptr %1, align 4
  store i32 1, ptr %3, align 4
  br label %28

20:                                               ; preds = %17, %16, %15, %13, %11, %9
  br label %4, !llvm.loop !11

21:                                               ; preds = %4
  call void @add_test(ptr noundef @.str.25, ptr noundef @test_legacy_provider_unloaded)
  %22 = load ptr, ptr @alg, align 8, !tbaa !8
  %23 = call i32 @strcmp(ptr noundef %22, ptr noundef @.str.26) #7
  %24 = icmp eq i32 %23, 0
  br i1 %24, label %25, label %26

25:                                               ; preds = %21
  call void @add_test(ptr noundef @.str.27, ptr noundef @test_implicit_EVP_MD_fetch)
  call void @add_test(ptr noundef @.str.28, ptr noundef @test_explicit_EVP_MD_fetch_by_name)
  call void @add_all_tests(ptr noundef @.str.29, ptr noundef @test_explicit_EVP_MD_fetch_by_X509_ALGOR, i32 noundef 2, i32 noundef 0)
  br label %27

26:                                               ; preds = %21
  call void @add_test(ptr noundef @.str.30, ptr noundef @test_implicit_EVP_CIPHER_fetch)
  call void @add_test(ptr noundef @.str.31, ptr noundef @test_explicit_EVP_CIPHER_fetch_by_name)
  call void @add_all_tests(ptr noundef @.str.32, ptr noundef @test_explicit_EVP_CIPHER_fetch_by_X509_ALGOR, i32 noundef 2, i32 noundef 0)
  br label %27

27:                                               ; preds = %26, %25
  store i32 1, ptr %1, align 4
  store i32 1, ptr %3, align 4
  br label %28

28:                                               ; preds = %27, %19
  call void @llvm.lifetime.end.p0(i64 4, ptr %2) #6
  %29 = load i32, ptr %1, align 4
  ret i32 %29
}