; Function Attrs: nounwind uwtable
define dso_local range(i32 0, 2) i32 @setup_tests() local_unnamed_addr #1 {
  br label %1

1:                                                ; preds = %.backedge, %0
  %2 = tail call i32 @opt_next() #7
  switch i32 %2, label %.loopexit [
    i32 0, label %11
    i32 5, label %3
    i32 1, label %5
    i32 2, label %7
    i32 3, label %9
    i32 4, label %10
    i32 500, label %.backedge
    i32 501, label %.backedge
    i32 502, label %.backedge
    i32 503, label %.backedge
    i32 504, label %.backedge
    i32 505, label %.backedge
  ]

.backedge:                                        ; preds = %1, %1, %1, %1, %1, %1, %10, %9, %7, %5, %3
  br label %1, !llvm.loop !4

3:                                                ; preds = %1
  %4 = tail call ptr @opt_arg() #7
  store ptr %4, ptr @config_file, align 8, !tbaa !6
  br label %.backedge

5:                                                ; preds = %1
  %6 = tail call ptr @opt_arg() #7
  store ptr %6, ptr @alg, align 8, !tbaa !6
  br label %.backedge

7:                                                ; preds = %1
  %8 = tail call ptr @opt_arg() #7
  store ptr %8, ptr @fetch_property, align 8, !tbaa !6
  br label %.backedge

9:                                                ; preds = %1
  store i1 true, ptr @expected_fetch_result, align 4
  br label %.backedge

10:                                               ; preds = %1
  store i1 true, ptr @use_default_ctx, align 4
  br label %.backedge

11:                                               ; preds = %1
  tail call void @add_test(ptr noundef nonnull @.str.25, ptr noundef nonnull @test_legacy_provider_unloaded) #7
  %12 = load ptr, ptr @alg, align 8, !tbaa !6
  %13 = tail call i32 @strcmp(ptr noundef nonnull dereferenceable(1) %12, ptr noundef nonnull dereferenceable(7) @.str.26) #8
  %14 = icmp eq i32 %13, 0
  br i1 %14, label %15, label %16

15:                                               ; preds = %11
  tail call void @add_test(ptr noundef nonnull @.str.27, ptr noundef nonnull @test_implicit_EVP_MD_fetch) #7
  tail call void @add_test(ptr noundef nonnull @.str.28, ptr noundef nonnull @test_explicit_EVP_MD_fetch_by_name) #7
  tail call void @add_all_tests(ptr noundef nonnull @.str.29, ptr noundef nonnull @test_explicit_EVP_MD_fetch_by_X509_ALGOR, i32 noundef 2, i32 noundef 0) #7
  br label %.loopexit

16:                                               ; preds = %11
  tail call void @add_test(ptr noundef nonnull @.str.30, ptr noundef nonnull @test_implicit_EVP_CIPHER_fetch) #7
  tail call void @add_test(ptr noundef nonnull @.str.31, ptr noundef nonnull @test_explicit_EVP_CIPHER_fetch_by_name) #7
  tail call void @add_all_tests(ptr noundef nonnull @.str.32, ptr noundef nonnull @test_explicit_EVP_CIPHER_fetch_by_X509_ALGOR, i32 noundef 2, i32 noundef 0) #7
  br label %.loopexit

.loopexit:                                        ; preds = %1, %15, %16
  %.0 = phi i32 [ 1, %16 ], [ 1, %15 ], [ 0, %1 ]
  ret i32 %.0
}